; Function Attrs: mustprogress nofree norecurse nosync nounwind memory(argmem: readwrite) uwtable
define dso_local void @_ZN4absl14ascii_internal15AsciiStrToUpperEPcPKcm(ptr noundef writeonly captures(none) %0, ptr noundef readonly captures(none) %1, i64 noundef %2) local_unnamed_addr #0 {
  %4 = icmp ult i64 %2, 16
  br i1 %4, label %5, label %.lr.ph.i7.i

5:                                                ; preds = %3
  %.not.i.i = icmp eq i64 %2, 0
  br i1 %.not.i.i, label %_ZN4absl14ascii_internal16AsciiStrCaseFoldILb1EEEvPcPKcm.exit, label %.lr.ph.i.i

.lr.ph.i.i:                                       ; preds = %5, %.lr.ph.i.i
  %.09.i.i = phi i64 [ %13, %.lr.ph.i.i ], [ 0, %5 ]
  %6 = getelementptr inbounds nuw i8, ptr %1, i64 %.09.i.i
  %7 = load i8, ptr %6, align 1, !tbaa !4
  %8 = add i8 %7, -97
  %9 = icmp ult i8 %8, 26
  %10 = select i1 %9, i8 32, i8 0
  %11 = xor i8 %10, %7
  %12 = getelementptr inbounds nuw i8, ptr %0, i64 %.09.i.i
  store i8 %11, ptr %12, align 1, !tbaa !4
  %13 = add nuw nsw i64 %.09.i.i, 1
  %exitcond.not.i.i = icmp eq i64 %13, %2
  br i1 %exitcond.not.i.i, label %_ZN4absl14ascii_internal16AsciiStrCaseFoldILb1EEEvPcPKcm.exit, label %.lr.ph.i.i, !llvm.loop !10

.lr.ph.i7.i:                                      ; preds = %3, %.lr.ph.i7.i
  %.09.i8.i = phi i64 [ %21, %.lr.ph.i7.i ], [ 0, %3 ]
  %14 = getelementptr inbounds nuw i8, ptr %1, i64 %.09.i8.i
  %15 = load i8, ptr %14, align 1, !tbaa !4
  %16 = add i8 %15, 31
  %17 = icmp slt i8 %16, -102
  %18 = select i1 %17, i8 32, i8 0
  %19 = xor i8 %18, %15
  %20 = getelementptr inbounds nuw i8, ptr %0, i64 %.09.i8.i
  store i8 %19, ptr %20, align 1, !tbaa !4
  %21 = add nuw i64 %.09.i8.i, 1
  %exitcond.not.i9.i = icmp eq i64 %21, %2
  br i1 %exitcond.not.i9.i, label %_ZN4absl14ascii_internal16AsciiStrCaseFoldILb1EEEvPcPKcm.exit, label %.lr.ph.i7.i, !llvm.loop !11

_ZN4absl14ascii_internal16AsciiStrCaseFoldILb1EEEvPcPKcm.exit: ; preds = %.lr.ph.i7.i, %.lr.ph.i.i, %5
  ret void
}